target datalayout = "e-m:e-p270:32:32-p271:32:32-p272:64:64-i64:64-i128:128-f80:128-n8:16:32:64-S128"
target triple = "x86_64-pc-linux-gnu"

%class.cmCursesPathWidget = type { %class.cmCursesStringWidget.base, %"class.std::__cxx11::basic_string", %"class.std::__cxx11::basic_string", i8, i64 }
%class.cmCursesStringWidget.base = type <{ %class.cmCursesWidget.base, i8, [3 x i8], %"class.std::__cxx11::basic_string", i8 }>
%class.cmCursesWidget.base = type <{ ptr, i32, [4 x i8], %"class.std::__cxx11::basic_string", ptr, i32 }>
%"class.std::__cxx11::basic_string" = type { %"struct.std::__cxx11::basic_string<char>::_Alloc_hider", i64, %union.anon }
%"struct.std::__cxx11::basic_string<char>::_Alloc_hider" = type { ptr }
%union.anon = type { i64, [8 x i8] }

@.str = private unnamed_addr constant [1 x i8] zeroinitializer, align 1

; Function Attrs: mustprogress uwtable
define dso_local void @_ZN18cmCursesPathWidget6OnTypeERiP16cmCursesMainFormP7_win_st(ptr noundef nonnull align 8 dereferenceable(184) %0, ptr noundef nonnull align 4 dereferenceable(4) %1, ptr noundef %2, ptr noundef %3) unnamed_addr #4 align 2 {
  %5 = alloca ptr, align 8
  %6 = alloca ptr, align 8
  %7 = alloca ptr, align 8
  %8 = alloca ptr, align 8
  store ptr %0, ptr %5, align 8
  store ptr %1, ptr %6, align 8
  store ptr %2, ptr %7, align 8
  store ptr %3, ptr %8, align 8
  %9 = load ptr, ptr %5, align 8
  %10 = getelementptr inbounds %class.cmCursesPathWidget, ptr %9, i32 0, i32 3
  store i8 0, ptr %10, align 8
  %11 = getelementptr inbounds %class.cmCursesPathWidget, ptr %9, i32 0, i32 4
  store i64 0, ptr %11, align 8
  %12 = getelementptr inbounds %class.cmCursesPathWidget, ptr %9, i32 0, i32 2
  %13 = call noundef nonnull align 8 dereferenceable(32) ptr @_ZNSt7__cxx1112basic_stringIcSt11char_traitsIcESaIcEEaSEPKc(ptr noundef nonnull align 8 dereferenceable(32) %12, ptr noundef @.str)
  %14 = load ptr, ptr %6, align 8
  %15 = load ptr, ptr %7, align 8
  %16 = load ptr, ptr %8, align 8
  call void @_ZN20cmCursesStringWidget6OnTypeERiP16cmCursesMainFormP7_win_st(ptr noundef nonnull align 8 dereferenceable(97) %9, ptr noundef nonnull align 4 dereferenceable(4) %14, ptr noundef %15, ptr noundef %16)
  ret void
}