; Function Attrs: mustprogress uwtable
define dso_local void @_ZN18cmCursesPathWidget6OnTypeERiP16cmCursesMainFormP7_win_st(ptr noundef nonnull align 8 dereferenceable(184) %0, ptr noundef nonnull align 4 dereferenceable(4) %1, ptr noundef %2, ptr noundef %3) unnamed_addr #3 align 2 {
  %5 = getelementptr inbounds i8, ptr %0, i64 168
  store i8 0, ptr %5, align 8
  %6 = getelementptr inbounds i8, ptr %0, i64 176
  store i64 0, ptr %6, align 8
  %7 = getelementptr inbounds i8, ptr %0, i64 136
  %8 = tail call noundef nonnull align 8 dereferenceable(32) ptr @_ZNSt7__cxx1112basic_stringIcSt11char_traitsIcESaIcEEaSEPKc(ptr noundef nonnull align 8 dereferenceable(32) %7, ptr noundef nonnull @.str)
  tail call void @_ZN20cmCursesStringWidget6OnTypeERiP16cmCursesMainFormP7_win_st(ptr noundef nonnull align 8 dereferenceable(97) %0, ptr noundef nonnull align 4 dereferenceable(4) %1, ptr noundef %2, ptr noundef %3)
  ret void
}